target datalayout = "e-m:e-p270:32:32-p271:32:32-p272:64:64-i64:64-i128:128-f80:128-n8:16:32:64-S128"
target triple = "x86_64-pc-linux-gnu"

%struct.dfwork_t = type { ptr, i32, ptr, i32, ptr, ptr, ptr, ptr, i32, i32, ptr, ptr, ptr, ptr, ptr, ptr }
%struct.dfvm_insn_t = type { i32, i32, ptr, ptr, ptr }
%struct._GSList = type { ptr, ptr }

@.str = private unnamed_addr constant [1 x i8] zeroinitializer, align 1
@.str.1 = private unnamed_addr constant [23 x i8] c"epan/dfilter/gencode.c\00", align 1
@__func__.select_opcode = private unnamed_addr constant [14 x i8] c"select_opcode\00", align 1
@.str.6 = private unnamed_addr constant [26 x i8] c"Invalid dfvm opcode '%s'.\00", align 1

; Function Attrs: nounwind uwtable
define internal void @dfw_append_insn(ptr noundef %0, ptr noundef %1) #0 {
  %3 = alloca ptr, align 8
  %4 = alloca ptr, align 8
  store ptr %0, ptr %3, align 8
  store ptr %1, ptr %4, align 8
  %5 = load ptr, ptr %3, align 8
  %6 = getelementptr inbounds %struct.dfwork_t, ptr %5, i32 0, i32 8
  %7 = load i32, ptr %6, align 8
  %8 = load ptr, ptr %4, align 8
  %9 = getelementptr inbounds %struct.dfvm_insn_t, ptr %8, i32 0, i32 0
  store i32 %7, ptr %9, align 8
  %10 = load ptr, ptr %3, align 8
  %11 = getelementptr inbounds %struct.dfwork_t, ptr %10, i32 0, i32 8
  %12 = load i32, ptr %11, align 8
  %13 = add i32 %12, 1
  store i32 %13, ptr %11, align 8
  %14 = load ptr, ptr %3, align 8
  %15 = getelementptr inbounds %struct.dfwork_t, ptr %14, i32 0, i32 4
  %16 = load ptr, ptr %15, align 8
  %17 = load ptr, ptr %4, align 8
  call void @g_ptr_array_add(ptr noundef %16, ptr noundef %17)
  ret void
}

; Function Attrs: nounwind uwtable
define internal i32 @select_opcode(i32 noundef %0, i32 noundef %1) #0 {
  %3 = alloca i32, align 4
  %4 = alloca i32, align 4
  %5 = alloca i32, align 4
  store i32 %0, ptr %4, align 4
  store i32 %1, ptr %5, align 4
  %6 = load i32, ptr %5, align 4
  %7 = icmp eq i32 %6, 0
  br i1 %7, label %8, label %10

8:                                                ; preds = %2
  %9 = load i32, ptr %4, align 4
  store i32 %9, ptr %3, align 4
  br label %35

10:                                               ; preds = %2
  %11 = load i32, ptr %4, align 4
  switch i32 %11, label %32 [
    i32 12, label %12
    i32 14, label %12
    i32 16, label %12
    i32 18, label %12
    i32 20, label %12
    i32 22, label %12
    i32 24, label %12
    i32 26, label %12
    i32 28, label %12
    i32 30, label %12
    i32 13, label %22
    i32 15, label %22
    i32 17, label %22
    i32 19, label %22
    i32 21, label %22
    i32 23, label %22
    i32 25, label %22
    i32 27, label %22
    i32 29, label %22
    i32 31, label %22
  ]

12:                                               ; preds = %10, %10, %10, %10, %10, %10, %10, %10, %10, %10
  %13 = load i32, ptr %5, align 4
  %14 = icmp eq i32 %13, 2
  br i1 %14, label %15, label %17

15:                                               ; preds = %12
  %16 = load i32, ptr %4, align 4
  br label %20

17:                                               ; preds = %12
  %18 = load i32, ptr %4, align 4
  %19 = add i32 %18, 1
  br label %20

20:                                               ; preds = %17, %15
  %21 = phi i32 [ %16, %15 ], [ %19, %17 ]
  store i32 %21, ptr %3, align 4
  br label %35

22:                                               ; preds = %10, %10, %10, %10, %10, %10, %10, %10, %10, %10
  %23 = load i32, ptr %5, align 4
  %24 = icmp eq i32 %23, 1
  br i1 %24, label %25, label %27

25:                                               ; preds = %22
  %26 = load i32, ptr %4, align 4
  br label %30

27:                                               ; preds = %22
  %28 = load i32, ptr %4, align 4
  %29 = sub i32 %28, 1
  br label %30

30:                                               ; preds = %27, %25
  %31 = phi i32 [ %26, %25 ], [ %29, %27 ]
  store i32 %31, ptr %3, align 4
  br label %35

32:                                               ; preds = %10
  %33 = load i32, ptr %4, align 4
  %34 = call ptr @dfvm_opcode_tostr(i32 noundef %33)
  call void (ptr, i32, ptr, i64, ptr, ptr, ...) @ws_log_fatal_full(ptr noundef @.str, i32 noundef 7, ptr noundef @.str.1, i64 noundef 61, ptr noundef @__func__.select_opcode, ptr noundef @.str.6, ptr noundef %34) #6
  unreachable

35:                                               ; preds = %30, %20, %8
  %36 = load i32, ptr %3, align 4
  ret i32 %36
}

; Function Attrs: nounwind uwtable
define internal void @dfw_append_set_add(ptr noundef %0, ptr noundef %1) #0 {
  %3 = alloca ptr, align 8
  %4 = alloca ptr, align 8
  %5 = alloca ptr, align 8
  store ptr %0, ptr %3, align 8
  store ptr %1, ptr %4, align 8
  %6 = call ptr @dfvm_insn_new(i32 noundef 32)
  store ptr %6, ptr %5, align 8
  %7 = load ptr, ptr %4, align 8
  %8 = call ptr @dfvm_value_ref(ptr noundef %7)
  %9 = load ptr, ptr %5, align 8
  %10 = getelementptr inbounds %struct.dfvm_insn_t, ptr %9, i32 0, i32 2
  store ptr %8, ptr %10, align 8
  %11 = load ptr, ptr %3, align 8
  %12 = load ptr, ptr %5, align 8
  call void @dfw_append_insn(ptr noundef %11, ptr noundef %12)
  ret void
}

; Function Attrs: nounwind uwtable
define internal void @dfw_append_set_add_range(ptr noundef %0, ptr noundef %1, ptr noundef %2) #0 {
  %4 = alloca ptr, align 8
  %5 = alloca ptr, align 8
  %6 = alloca ptr, align 8
  %7 = alloca ptr, align 8
  store ptr %0, ptr %4, align 8
  store ptr %1, ptr %5, align 8
  store ptr %2, ptr %6, align 8
  %8 = call ptr @dfvm_insn_new(i32 noundef 33)
  store ptr %8, ptr %7, align 8
  %9 = load ptr, ptr %5, align 8
  %10 = call ptr @dfvm_value_ref(ptr noundef %9)
  %11 = load ptr, ptr %7, align 8
  %12 = getelementptr inbounds %struct.dfvm_insn_t, ptr %11, i32 0, i32 2
  store ptr %10, ptr %12, align 8
  %13 = load ptr, ptr %6, align 8
  %14 = call ptr @dfvm_value_ref(ptr noundef %13)
  %15 = load ptr, ptr %7, align 8
  %16 = getelementptr inbounds %struct.dfvm_insn_t, ptr %15, i32 0, i32 3
  store ptr %14, ptr %16, align 8
  %17 = load ptr, ptr %4, align 8
  %18 = load ptr, ptr %7, align 8
  call void @dfw_append_insn(ptr noundef %17, ptr noundef %18)
  ret void
}

; Function Attrs: nounwind uwtable
define internal void @gen_relation_in(ptr noundef %0, i32 noundef %1, i32 noundef %2, ptr noundef %3, ptr noundef %4) #0 {
  %6 = alloca ptr, align 8
  %7 = alloca i32, align 4
  %8 = alloca i32, align 4
  %9 = alloca ptr, align 8
  %10 = alloca ptr, align 8
  %11 = alloca ptr, align 8
  %12 = alloca ptr, align 8
  %13 = alloca ptr, align 8
  %14 = alloca ptr, align 8
  %15 = alloca ptr, align 8
  %16 = alloca ptr, align 8
  %17 = alloca ptr, align 8
  %18 = alloca ptr, align 8
  %19 = alloca ptr, align 8
  %20 = alloca ptr, align 8
  store ptr %0, ptr %6, align 8
  store i32 %1, ptr %7, align 4
  store i32 %2, ptr %8, align 4
  store ptr %3, ptr %9, align 8
  store ptr %4, ptr %10, align 8
  store ptr null, ptr %12, align 8
  store ptr null, ptr %13, align 8
  %21 = load ptr, ptr %6, align 8
  %22 = load ptr, ptr %9, align 8
  %23 = call ptr @gen_entity(ptr noundef %21, ptr noundef %22, ptr noundef %12)
  store ptr %23, ptr %14, align 8
  %24 = load ptr, ptr %10, align 8
  %25 = call ptr @stnode_steal_data(ptr noundef %24)
  store ptr %25, ptr %20, align 8
  store ptr %25, ptr %19, align 8
  br label %26

26:                                               ; preds = %72, %5
  %27 = load ptr, ptr %20, align 8
  %28 = icmp ne ptr %27, null
  br i1 %28, label %29, label %76

29:                                               ; preds = %26
  %30 = load ptr, ptr %20, align 8
  %31 = getelementptr inbounds %struct._GSList, ptr %30, i32 0, i32 0
  %32 = load ptr, ptr %31, align 8
  store ptr %32, ptr %17, align 8
  %33 = load ptr, ptr %20, align 8
  %34 = icmp ne ptr %33, null
  br i1 %34, label %35, label %39

35:                                               ; preds = %29
  %36 = load ptr, ptr %20, align 8
  %37 = getelementptr inbounds %struct._GSList, ptr %36, i32 0, i32 1
  %38 = load ptr, ptr %37, align 8
  br label %40

39:                                               ; preds = %29
  br label %40

40:                                               ; preds = %39, %35
  %41 = phi ptr [ %38, %35 ], [ null, %39 ]
  store ptr %41, ptr %20, align 8
  %42 = load ptr, ptr %20, align 8
  %43 = getelementptr inbounds %struct._GSList, ptr %42, i32 0, i32 0
  %44 = load ptr, ptr %43, align 8
  store ptr %44, ptr %18, align 8
  %45 = load ptr, ptr %20, align 8
  %46 = icmp ne ptr %45, null
  br i1 %46, label %47, label %51

47:                                               ; preds = %40
  %48 = load ptr, ptr %20, align 8
  %49 = getelementptr inbounds %struct._GSList, ptr %48, i32 0, i32 1
  %50 = load ptr, ptr %49, align 8
  br label %52

51:                                               ; preds = %40
  br label %52

52:                                               ; preds = %51, %47
  %53 = phi ptr [ %50, %47 ], [ null, %51 ]
  store ptr %53, ptr %20, align 8
  %54 = load ptr, ptr %18, align 8
  %55 = icmp ne ptr %54, null
  br i1 %55, label %56, label %66

56:                                               ; preds = %52
  %57 = load ptr, ptr %6, align 8
  %58 = load ptr, ptr %17, align 8
  %59 = call ptr @gen_entity(ptr noundef %57, ptr noundef %58, ptr noundef %13)
  store ptr %59, ptr %15, align 8
  %60 = load ptr, ptr %6, align 8
  %61 = load ptr, ptr %18, align 8
  %62 = call ptr @gen_entity(ptr noundef %60, ptr noundef %61, ptr noundef %13)
  store ptr %62, ptr %16, align 8
  %63 = load ptr, ptr %6, align 8
  %64 = load ptr, ptr %15, align 8
  %65 = load ptr, ptr %16, align 8
  call void @dfw_append_set_add_range(ptr noundef %63, ptr noundef %64, ptr noundef %65)
  br label %72

66:                                               ; preds = %52
  %67 = load ptr, ptr %6, align 8
  %68 = load ptr, ptr %17, align 8
  %69 = call ptr @gen_entity(ptr noundef %67, ptr noundef %68, ptr noundef %13)
  store ptr %69, ptr %15, align 8
  %70 = load ptr, ptr %6, align 8
  %71 = load ptr, ptr %15, align 8
  call void @dfw_append_set_add(ptr noundef %70, ptr noundef %71)
  br label %72

72:                                               ; preds = %66, %56
  %73 = load ptr, ptr %13, align 8
  %74 = load ptr, ptr %6, align 8
  call void @g_slist_foreach(ptr noundef %73, ptr noundef @fixup_jumps, ptr noundef %74)
  %75 = load ptr, ptr %13, align 8
  call void @g_slist_free(ptr noundef %75)
  store ptr null, ptr %13, align 8
  br label %26, !llvm.loop !8

76:                                               ; preds = %26
  %77 = load ptr, ptr %19, align 8
  call void @set_nodelist_free(ptr noundef %77)
  %78 = load i32, ptr %7, align 4
  %79 = load i32, ptr %8, align 4
  %80 = call i32 @select_opcode(i32 noundef %78, i32 noundef %79)
  %81 = call ptr @dfvm_insn_new(i32 noundef %80)
  store ptr %81, ptr %11, align 8
  %82 = load ptr, ptr %14, align 8
  %83 = call ptr @dfvm_value_ref(ptr noundef %82)
  %84 = load ptr, ptr %11, align 8
  %85 = getelementptr inbounds %struct.dfvm_insn_t, ptr %84, i32 0, i32 2
  store ptr %83, ptr %85, align 8
  %86 = load ptr, ptr %6, align 8
  %87 = load ptr, ptr %11, align 8
  call void @dfw_append_insn(ptr noundef %86, ptr noundef %87)
  %88 = call ptr @dfvm_insn_new(i32 noundef 34)
  store ptr %88, ptr %11, align 8
  %89 = load ptr, ptr %6, align 8
  %90 = load ptr, ptr %11, align 8
  call void @dfw_append_insn(ptr noundef %89, ptr noundef %90)
  %91 = load ptr, ptr %12, align 8
  %92 = load ptr, ptr %6, align 8
  call void @g_slist_foreach(ptr noundef %91, ptr noundef @fixup_jumps, ptr noundef %92)
  %93 = load ptr, ptr %12, align 8
  call void @g_slist_free(ptr noundef %93)
  store ptr null, ptr %12, align 8
  ret void
}