; Function Attrs: nounwind uwtable
define internal fastcc void @gen_relation_in(ptr noundef %0, i32 noundef range(i32 29, 32) %1, i32 noundef %2, ptr noundef %3, ptr noundef %4) unnamed_addr #0 {
  %6 = alloca ptr, align 8
  %7 = alloca ptr, align 8
  store ptr null, ptr %6, align 8
  store ptr null, ptr %7, align 8
  %8 = call fastcc ptr @gen_entity(ptr noundef %0, ptr noundef %3, ptr noundef %6)
  %9 = call ptr @stnode_steal_data(ptr noundef %4) #9
  %.not34 = icmp eq ptr %9, null
  br i1 %.not34, label %._crit_edge, label %.lr.ph

.lr.ph:                                           ; preds = %5
  %10 = getelementptr inbounds nuw i8, ptr %0, i64 64
  %11 = getelementptr inbounds nuw i8, ptr %0, i64 32
  br label %12

12:                                               ; preds = %.lr.ph, %31
  %.035 = phi ptr [ %9, %.lr.ph ], [ %18, %31 ]
  %13 = load ptr, ptr %.035, align 8
  %14 = getelementptr inbounds nuw i8, ptr %.035, i64 8
  %15 = load ptr, ptr %14, align 8
  %16 = load ptr, ptr %15, align 8
  %17 = getelementptr inbounds nuw i8, ptr %15, i64 8
  %18 = load ptr, ptr %17, align 8
  %.not33 = icmp eq ptr %16, null
  %19 = call fastcc ptr @gen_entity(ptr noundef %0, ptr noundef %13, ptr noundef %7)
  br i1 %.not33, label %27, label %20

20:                                               ; preds = %12
  %21 = call fastcc ptr @gen_entity(ptr noundef %0, ptr noundef nonnull %16, ptr noundef %7)
  %22 = call ptr @dfvm_insn_new(i32 noundef 33) #9
  %23 = call ptr @dfvm_value_ref(ptr noundef %19) #9
  %24 = getelementptr inbounds nuw i8, ptr %22, i64 8
  store ptr %23, ptr %24, align 8
  %25 = call ptr @dfvm_value_ref(ptr noundef %21) #9
  %26 = getelementptr inbounds nuw i8, ptr %22, i64 16
  store ptr %25, ptr %26, align 8
  br label %31

27:                                               ; preds = %12
  %28 = call ptr @dfvm_insn_new(i32 noundef 32) #9
  %29 = call ptr @dfvm_value_ref(ptr noundef %19) #9
  %30 = getelementptr inbounds nuw i8, ptr %28, i64 8
  store ptr %29, ptr %30, align 8
  br label %31

31:                                               ; preds = %27, %20
  %.sink38 = phi ptr [ %28, %27 ], [ %22, %20 ]
  %32 = load i32, ptr %10, align 8
  store i32 %32, ptr %.sink38, align 8
  %33 = add i32 %32, 1
  store i32 %33, ptr %10, align 8
  %34 = load ptr, ptr %11, align 8
  call void @g_ptr_array_add(ptr noundef %34, ptr noundef nonnull %.sink38) #9
  %35 = load ptr, ptr %7, align 8
  call void @g_slist_foreach(ptr noundef %35, ptr noundef nonnull @fixup_jumps, ptr noundef nonnull %0) #9
  %36 = load ptr, ptr %7, align 8
  call void @g_slist_free(ptr noundef %36) #9
  store ptr null, ptr %7, align 8
  %.not = icmp eq ptr %18, null
  br i1 %.not, label %._crit_edge, label %12, !llvm.loop !8

._crit_edge:                                      ; preds = %31, %5
  call void @set_nodelist_free(ptr noundef %9) #9
  %37 = icmp eq i32 %2, 0
  br i1 %37, label %select_opcode.exit, label %38

38:                                               ; preds = %._crit_edge
  switch i32 %1, label %default.unreachable [
    i32 31, label %43
    i32 29, label %43
    i32 28, label %39
    i32 30, label %39
  ]

39:                                               ; preds = %38, %38
  %40 = icmp ne i32 %2, 2
  %41 = zext i1 %40 to i32
  %42 = add nuw nsw i32 %1, %41
  br label %select_opcode.exit

43:                                               ; preds = %38, %38
  %44 = icmp ne i32 %2, 1
  %45 = sext i1 %44 to i32
  %46 = add nsw i32 %1, %45
  br label %select_opcode.exit

default.unreachable:                              ; preds = %38
  unreachable

select_opcode.exit:                               ; preds = %._crit_edge, %39, %43
  %.0.i = phi i32 [ %46, %43 ], [ %42, %39 ], [ %1, %._crit_edge ]
  %47 = call ptr @dfvm_insn_new(i32 noundef %.0.i) #9
  %48 = call ptr @dfvm_value_ref(ptr noundef %8) #9
  %49 = getelementptr inbounds nuw i8, ptr %47, i64 8
  store ptr %48, ptr %49, align 8
  %50 = getelementptr inbounds nuw i8, ptr %0, i64 64
  %51 = load i32, ptr %50, align 8
  store i32 %51, ptr %47, align 8
  %52 = add i32 %51, 1
  store i32 %52, ptr %50, align 8
  %53 = getelementptr inbounds nuw i8, ptr %0, i64 32
  %54 = load ptr, ptr %53, align 8
  call void @g_ptr_array_add(ptr noundef %54, ptr noundef nonnull %47) #9
  %55 = call ptr @dfvm_insn_new(i32 noundef 34) #9
  %56 = load i32, ptr %50, align 8
  store i32 %56, ptr %55, align 8
  %57 = add i32 %56, 1
  store i32 %57, ptr %50, align 8
  %58 = load ptr, ptr %53, align 8
  call void @g_ptr_array_add(ptr noundef %58, ptr noundef nonnull %55) #9
  %59 = load ptr, ptr %6, align 8
  call void @g_slist_foreach(ptr noundef %59, ptr noundef nonnull @fixup_jumps, ptr noundef %0) #9
  %60 = load ptr, ptr %6, align 8
  call void @g_slist_free(ptr noundef %60) #9
  ret void
}